target datalayout = "e-m:e-p270:32:32-p271:32:32-p272:64:64-i64:64-i128:128-f80:128-n8:16:32:64-S128"
target triple = "x86_64-pc-linux-gnu"

%"class.cvc5::internal::theory::strings::Strategy" = type { %"class.cvc5::internal::EnvObj", i8, %"class.std::vector", %"class.std::map" }
%"class.cvc5::internal::EnvObj" = type { ptr, ptr }
%"class.std::vector" = type { %"struct.std::_Vector_base" }
%"struct.std::_Vector_base" = type { %"struct.std::_Vector_base<std::pair<cvc5::internal::theory::strings::InferStep, int>, std::allocator<std::pair<cvc5::internal::theory::strings::InferStep, int>>>::_Vector_impl" }
%"struct.std::_Vector_base<std::pair<cvc5::internal::theory::strings::InferStep, int>, std::allocator<std::pair<cvc5::internal::theory::strings::InferStep, int>>>::_Vector_impl" = type { %"struct.std::_Vector_base<std::pair<cvc5::internal::theory::strings::InferStep, int>, std::allocator<std::pair<cvc5::internal::theory::strings::InferStep, int>>>::_Vector_impl_data" }
%"struct.std::_Vector_base<std::pair<cvc5::internal::theory::strings::InferStep, int>, std::allocator<std::pair<cvc5::internal::theory::strings::InferStep, int>>>::_Vector_impl_data" = type { ptr, ptr, ptr }
%"class.std::map" = type { %"class.std::_Rb_tree" }
%"class.std::_Rb_tree" = type { %"struct.std::_Rb_tree<cvc5::internal::theory::Theory::Effort, std::pair<const cvc5::internal::theory::Theory::Effort, std::pair<unsigned int, unsigned int>>, std::_Select1st<std::pair<const cvc5::internal::theory::Theory::Effort, std::pair<unsigned int, unsigned int>>>, std::less<cvc5::internal::theory::Theory::Effort>>::_Rb_tree_impl" }
%"struct.std::_Rb_tree<cvc5::internal::theory::Theory::Effort, std::pair<const cvc5::internal::theory::Theory::Effort, std::pair<unsigned int, unsigned int>>, std::_Select1st<std::pair<const cvc5::internal::theory::Theory::Effort, std::pair<unsigned int, unsigned int>>>, std::less<cvc5::internal::theory::Theory::Effort>>::_Rb_tree_impl" = type { [8 x i8], %"struct.std::_Rb_tree_header" }
%"struct.std::_Rb_tree_header" = type { %"struct.std::_Rb_tree_node_base", i64 }
%"struct.std::_Rb_tree_node_base" = type { i32, ptr, ptr, ptr }
%"struct.std::_Rb_tree_const_iterator" = type { ptr }
%"struct.std::pair" = type { i32, %"struct.std::pair.281" }
%"struct.std::pair.281" = type { i32, i32 }
%"struct.std::_Rb_tree_node" = type <{ %"struct.std::_Rb_tree_node_base", %"struct.__gnu_cxx::__aligned_membuf", [4 x i8] }>
%"struct.__gnu_cxx::__aligned_membuf" = type { [12 x i8] }
%"struct.std::_Select1st" = type { i8 }

; Function Attrs: mustprogress nounwind uwtable
define linkonce_odr hidden noundef ptr @_ZNK9__gnu_cxx16__aligned_membufISt4pairIKN4cvc58internal6theory6Theory6EffortES1_IjjEEE7_M_addrEv(ptr noundef nonnull align 4 dereferenceable(12) %0) #8 comdat align 2 {
  %2 = alloca ptr, align 8
  store ptr %0, ptr %2, align 8, !tbaa !329
  %3 = load ptr, ptr %2, align 8
  %4 = getelementptr inbounds nuw %"struct.__gnu_cxx::__aligned_membuf", ptr %3, i32 0, i32 0
  ret ptr %4
}

; Function Attrs: mustprogress nounwind uwtable
define linkonce_odr hidden noundef ptr @_ZNK9__gnu_cxx16__aligned_membufISt4pairIKN4cvc58internal6theory6Theory6EffortES1_IjjEEE6_M_ptrEv(ptr noundef nonnull align 4 dereferenceable(12) %0) #8 comdat align 2 {
  %2 = alloca ptr, align 8
  store ptr %0, ptr %2, align 8, !tbaa !329
  %3 = load ptr, ptr %2, align 8
  %4 = call noundef ptr @_ZNK9__gnu_cxx16__aligned_membufISt4pairIKN4cvc58internal6theory6Theory6EffortES1_IjjEEE7_M_addrEv(ptr noundef nonnull align 4 dereferenceable(12) %3) #3
  ret ptr %4
}

; Function Attrs: mustprogress nounwind uwtable
define linkonce_odr hidden noundef nonnull align 4 dereferenceable(4) ptr @_ZNKSt10_Select1stISt4pairIKN4cvc58internal6theory6Theory6EffortES0_IjjEEEclERKS8_(ptr noundef nonnull align 1 dereferenceable(1) %0, ptr noundef nonnull align 4 dereferenceable(12) %1) #8 comdat align 2 {
  %3 = alloca ptr, align 8
  %4 = alloca ptr, align 8
  store ptr %0, ptr %3, align 8, !tbaa !362
  store ptr %1, ptr %4, align 8, !tbaa !327
  %5 = load ptr, ptr %4, align 8, !tbaa !327
  %6 = getelementptr inbounds nuw %"struct.std::pair", ptr %5, i32 0, i32 0
  ret ptr %6
}

; Function Attrs: mustprogress nounwind uwtable
define linkonce_odr hidden noundef ptr @_ZNKSt13_Rb_tree_nodeISt4pairIKN4cvc58internal6theory6Theory6EffortES0_IjjEEE9_M_valptrEv(ptr noundef nonnull align 8 dereferenceable(44) %0) #8 comdat align 2 {
  %2 = alloca ptr, align 8
  store ptr %0, ptr %2, align 8, !tbaa !321
  %3 = load ptr, ptr %2, align 8
  %4 = getelementptr inbounds nuw %"struct.std::_Rb_tree_node", ptr %3, i32 0, i32 1
  %5 = call noundef ptr @_ZNK9__gnu_cxx16__aligned_membufISt4pairIKN4cvc58internal6theory6Theory6EffortES1_IjjEEE6_M_ptrEv(ptr noundef nonnull align 4 dereferenceable(12) %4) #3
  ret ptr %5
}

; Function Attrs: mustprogress nounwind uwtable
define linkonce_odr hidden noundef ptr @_ZNSt8_Rb_treeIN4cvc58internal6theory6Theory6EffortESt4pairIKS4_S5_IjjEESt10_Select1stIS8_ESt4lessIS4_ESaIS8_EE8_S_rightEPKSt18_Rb_tree_node_base(ptr noundef %0) #8 comdat align 2 {
  %2 = alloca ptr, align 8
  store ptr %0, ptr %2, align 8, !tbaa !277
  %3 = load ptr, ptr %2, align 8, !tbaa !277
  %4 = getelementptr inbounds nuw %"struct.std::_Rb_tree_node_base", ptr %3, i32 0, i32 3
  %5 = load ptr, ptr %4, align 8, !tbaa !325
  ret ptr %5
}

; Function Attrs: mustprogress nounwind uwtable
define linkonce_odr hidden noundef ptr @_ZNSt8_Rb_treeIN4cvc58internal6theory6Theory6EffortESt4pairIKS4_S5_IjjEESt10_Select1stIS8_ESt4lessIS4_ESaIS8_EE7_S_leftEPKSt18_Rb_tree_node_base(ptr noundef %0) #8 comdat align 2 {
  %2 = alloca ptr, align 8
  store ptr %0, ptr %2, align 8, !tbaa !277
  %3 = load ptr, ptr %2, align 8, !tbaa !277
  %4 = getelementptr inbounds nuw %"struct.std::_Rb_tree_node_base", ptr %3, i32 0, i32 2
  %5 = load ptr, ptr %4, align 8, !tbaa !326
  ret ptr %5
}

; Function Attrs: mustprogress uwtable
define linkonce_odr hidden noundef nonnull align 4 dereferenceable(4) ptr @_ZNSt8_Rb_treeIN4cvc58internal6theory6Theory6EffortESt4pairIKS4_S5_IjjEESt10_Select1stIS8_ESt4lessIS4_ESaIS8_EE6_S_keyEPKSt13_Rb_tree_nodeIS8_E(ptr noundef %0) #4 comdat align 2 {
  %2 = alloca ptr, align 8
  %3 = alloca %"struct.std::_Select1st", align 1
  store ptr %0, ptr %2, align 8, !tbaa !321
  call void @llvm.lifetime.start.p0(i64 1, ptr %3) #3
  %4 = load ptr, ptr %2, align 8, !tbaa !321
  %5 = call noundef ptr @_ZNKSt13_Rb_tree_nodeISt4pairIKN4cvc58internal6theory6Theory6EffortES0_IjjEEE9_M_valptrEv(ptr noundef nonnull align 8 dereferenceable(44) %4)
  %6 = call noundef nonnull align 4 dereferenceable(4) ptr @_ZNKSt10_Select1stISt4pairIKN4cvc58internal6theory6Theory6EffortES0_IjjEEEclERKS8_(ptr noundef nonnull align 1 dereferenceable(1) %3, ptr noundef nonnull align 4 dereferenceable(12) %5)
  call void @llvm.lifetime.end.p0(i64 1, ptr %3) #3
  ret ptr %6
}

; Function Attrs: mustprogress nounwind uwtable
define linkonce_odr hidden void @_ZNSt23_Rb_tree_const_iteratorISt4pairIKN4cvc58internal6theory6Theory6EffortES0_IjjEEEC2EPKSt18_Rb_tree_node_base(ptr noundef nonnull align 8 dereferenceable(8) %0, ptr noundef %1) unnamed_addr #8 comdat align 2 {
  %3 = alloca ptr, align 8
  %4 = alloca ptr, align 8
  store ptr %0, ptr %3, align 8, !tbaa !49
  store ptr %1, ptr %4, align 8, !tbaa !277
  %5 = load ptr, ptr %3, align 8
  %6 = getelementptr inbounds nuw %"struct.std::_Rb_tree_const_iterator", ptr %5, i32 0, i32 0
  %7 = load ptr, ptr %4, align 8, !tbaa !277
  store ptr %7, ptr %6, align 8, !tbaa !51
  ret void
}

; Function Attrs: mustprogress nounwind uwtable
define linkonce_odr hidden noundef zeroext i1 @_ZNKSt4lessIN4cvc58internal6theory6Theory6EffortEEclERKS4_S7_(ptr noundef nonnull align 1 dereferenceable(1) %0, ptr noundef nonnull align 4 dereferenceable(4) %1, ptr noundef nonnull align 4 dereferenceable(4) %2) #8 comdat align 2 {
  %4 = alloca ptr, align 8
  %5 = alloca ptr, align 8
  %6 = alloca ptr, align 8
  store ptr %0, ptr %4, align 8, !tbaa !360
  store ptr %1, ptr %5, align 8, !tbaa !53
  store ptr %2, ptr %6, align 8, !tbaa !53
  %7 = load ptr, ptr %5, align 8, !tbaa !53
  %8 = load i32, ptr %7, align 4, !tbaa !47
  %9 = load ptr, ptr %6, align 8, !tbaa !53
  %10 = load i32, ptr %9, align 4, !tbaa !47
  %11 = icmp slt i32 %8, %10
  ret i1 %11
}

; Function Attrs: mustprogress uwtable
define linkonce_odr hidden noundef nonnull align 4 dereferenceable(4) ptr @_ZNSt8_Rb_treeIN4cvc58internal6theory6Theory6EffortESt4pairIKS4_S5_IjjEESt10_Select1stIS8_ESt4lessIS4_ESaIS8_EE6_S_keyEPKSt18_Rb_tree_node_base(ptr noundef %0) #4 comdat align 2 {
  %2 = alloca ptr, align 8
  store ptr %0, ptr %2, align 8, !tbaa !277
  %3 = load ptr, ptr %2, align 8, !tbaa !277
  %4 = call noundef nonnull align 4 dereferenceable(4) ptr @_ZNSt8_Rb_treeIN4cvc58internal6theory6Theory6EffortESt4pairIKS4_S5_IjjEESt10_Select1stIS8_ESt4lessIS4_ESaIS8_EE6_S_keyEPKSt13_Rb_tree_nodeIS8_E(ptr noundef %3)
  ret ptr %4
}

; Function Attrs: mustprogress nounwind uwtable
define linkonce_odr noundef zeroext i1 @_ZSteqRKSt23_Rb_tree_const_iteratorISt4pairIKN4cvc58internal6theory6Theory6EffortES0_IjjEEESB_(ptr noundef nonnull align 8 dereferenceable(8) %0, ptr noundef nonnull align 8 dereferenceable(8) %1) #8 comdat {
  %3 = alloca ptr, align 8
  %4 = alloca ptr, align 8
  store ptr %0, ptr %3, align 8, !tbaa !49
  store ptr %1, ptr %4, align 8, !tbaa !49
  %5 = load ptr, ptr %3, align 8, !tbaa !49
  %6 = getelementptr inbounds nuw %"struct.std::_Rb_tree_const_iterator", ptr %5, i32 0, i32 0
  %7 = load ptr, ptr %6, align 8, !tbaa !51
  %8 = load ptr, ptr %4, align 8, !tbaa !49
  %9 = getelementptr inbounds nuw %"struct.std::_Rb_tree_const_iterator", ptr %8, i32 0, i32 0
  %10 = load ptr, ptr %9, align 8, !tbaa !51
  %11 = icmp eq ptr %7, %10
  ret i1 %11
}

; Function Attrs: mustprogress uwtable
define linkonce_odr hidden ptr @_ZNKSt8_Rb_treeIN4cvc58internal6theory6Theory6EffortESt4pairIKS4_S5_IjjEESt10_Select1stIS8_ESt4lessIS4_ESaIS8_EE14_M_lower_boundEPKSt13_Rb_tree_nodeIS8_EPKSt18_Rb_tree_node_baseRS6_(ptr noundef nonnull align 8 dereferenceable(48) %0, ptr noundef %1, ptr noundef %2, ptr noundef nonnull align 4 dereferenceable(4) %3) #4 comdat align 2 {
  %5 = alloca %"struct.std::_Rb_tree_const_iterator", align 8
  %6 = alloca ptr, align 8
  %7 = alloca ptr, align 8
  %8 = alloca ptr, align 8
  %9 = alloca ptr, align 8
  store ptr %0, ptr %6, align 8, !tbaa !304
  store ptr %1, ptr %7, align 8, !tbaa !321
  store ptr %2, ptr %8, align 8, !tbaa !277
  store ptr %3, ptr %9, align 8, !tbaa !53
  %10 = load ptr, ptr %6, align 8
  br label %11

11:                                               ; preds = %27, %4
  %12 = load ptr, ptr %7, align 8, !tbaa !321
  %13 = icmp ne ptr %12, null
  br i1 %13, label %14, label %28

14:                                               ; preds = %11
  %15 = getelementptr inbounds nuw %"class.std::_Rb_tree", ptr %10, i32 0, i32 0
  %16 = load ptr, ptr %7, align 8, !tbaa !321
  %17 = call noundef nonnull align 4 dereferenceable(4) ptr @_ZNSt8_Rb_treeIN4cvc58internal6theory6Theory6EffortESt4pairIKS4_S5_IjjEESt10_Select1stIS8_ESt4lessIS4_ESaIS8_EE6_S_keyEPKSt13_Rb_tree_nodeIS8_E(ptr noundef %16)
  %18 = load ptr, ptr %9, align 8, !tbaa !53
  %19 = call noundef zeroext i1 @_ZNKSt4lessIN4cvc58internal6theory6Theory6EffortEEclERKS4_S7_(ptr noundef nonnull align 1 dereferenceable(1) %15, ptr noundef nonnull align 4 dereferenceable(4) %17, ptr noundef nonnull align 4 dereferenceable(4) %18)
  br i1 %19, label %24, label %20

20:                                               ; preds = %14
  %21 = load ptr, ptr %7, align 8, !tbaa !321
  store ptr %21, ptr %8, align 8, !tbaa !277
  %22 = load ptr, ptr %7, align 8, !tbaa !321
  %23 = call noundef ptr @_ZNSt8_Rb_treeIN4cvc58internal6theory6Theory6EffortESt4pairIKS4_S5_IjjEESt10_Select1stIS8_ESt4lessIS4_ESaIS8_EE7_S_leftEPKSt18_Rb_tree_node_base(ptr noundef %22) #3
  store ptr %23, ptr %7, align 8, !tbaa !321
  br label %27

24:                                               ; preds = %14
  %25 = load ptr, ptr %7, align 8, !tbaa !321
  %26 = call noundef ptr @_ZNSt8_Rb_treeIN4cvc58internal6theory6Theory6EffortESt4pairIKS4_S5_IjjEESt10_Select1stIS8_ESt4lessIS4_ESaIS8_EE8_S_rightEPKSt18_Rb_tree_node_base(ptr noundef %25) #3
  store ptr %26, ptr %7, align 8, !tbaa !321
  br label %27

27:                                               ; preds = %24, %20
  br label %11, !llvm.loop !359

28:                                               ; preds = %11
  %29 = load ptr, ptr %8, align 8, !tbaa !277
  call void @_ZNSt23_Rb_tree_const_iteratorISt4pairIKN4cvc58internal6theory6Theory6EffortES0_IjjEEEC2EPKSt18_Rb_tree_node_base(ptr noundef nonnull align 8 dereferenceable(8) %5, ptr noundef %29) #3
  %30 = getelementptr inbounds nuw %"struct.std::_Rb_tree_const_iterator", ptr %5, i32 0, i32 0
  %31 = load ptr, ptr %30, align 8
  ret ptr %31
}

; Function Attrs: mustprogress nounwind uwtable
define linkonce_odr hidden noundef ptr @_ZNKSt8_Rb_treeIN4cvc58internal6theory6Theory6EffortESt4pairIKS4_S5_IjjEESt10_Select1stIS8_ESt4lessIS4_ESaIS8_EE6_M_endEv(ptr noundef nonnull align 8 dereferenceable(48) %0) #8 comdat align 2 {
  %2 = alloca ptr, align 8
  store ptr %0, ptr %2, align 8, !tbaa !304
  %3 = load ptr, ptr %2, align 8
  %4 = getelementptr inbounds nuw %"class.std::_Rb_tree", ptr %3, i32 0, i32 0
  %5 = getelementptr inbounds i8, ptr %4, i64 8
  %6 = getelementptr inbounds nuw %"struct.std::_Rb_tree_header", ptr %5, i32 0, i32 0
  ret ptr %6
}

; Function Attrs: mustprogress nounwind uwtable
define linkonce_odr hidden noundef ptr @_ZNKSt8_Rb_treeIN4cvc58internal6theory6Theory6EffortESt4pairIKS4_S5_IjjEESt10_Select1stIS8_ESt4lessIS4_ESaIS8_EE8_M_beginEv(ptr noundef nonnull align 8 dereferenceable(48) %0) #8 comdat align 2 {
  %2 = alloca ptr, align 8
  store ptr %0, ptr %2, align 8, !tbaa !304
  %3 = load ptr, ptr %2, align 8
  %4 = getelementptr inbounds nuw %"class.std::_Rb_tree", ptr %3, i32 0, i32 0
  %5 = getelementptr inbounds i8, ptr %4, i64 8
  %6 = getelementptr inbounds nuw %"struct.std::_Rb_tree_header", ptr %5, i32 0, i32 0
  %7 = getelementptr inbounds nuw %"struct.std::_Rb_tree_node_base", ptr %6, i32 0, i32 1
  %8 = load ptr, ptr %7, align 8, !tbaa !317
  ret ptr %8
}

; Function Attrs: mustprogress nounwind uwtable
define linkonce_odr hidden ptr @_ZNKSt8_Rb_treeIN4cvc58internal6theory6Theory6EffortESt4pairIKS4_S5_IjjEESt10_Select1stIS8_ESt4lessIS4_ESaIS8_EE3endEv(ptr noundef nonnull align 8 dereferenceable(48) %0) #8 comdat align 2 {
  %2 = alloca %"struct.std::_Rb_tree_const_iterator", align 8
  %3 = alloca ptr, align 8
  store ptr %0, ptr %3, align 8, !tbaa !304
  %4 = load ptr, ptr %3, align 8
  %5 = getelementptr inbounds nuw %"class.std::_Rb_tree", ptr %4, i32 0, i32 0
  %6 = getelementptr inbounds i8, ptr %5, i64 8
  %7 = getelementptr inbounds nuw %"struct.std::_Rb_tree_header", ptr %6, i32 0, i32 0
  call void @_ZNSt23_Rb_tree_const_iteratorISt4pairIKN4cvc58internal6theory6Theory6EffortES0_IjjEEEC2EPKSt18_Rb_tree_node_base(ptr noundef nonnull align 8 dereferenceable(8) %2, ptr noundef %7) #3
  %8 = getelementptr inbounds nuw %"struct.std::_Rb_tree_const_iterator", ptr %2, i32 0, i32 0
  %9 = load ptr, ptr %8, align 8
  ret ptr %9
}

; Function Attrs: mustprogress uwtable
define linkonce_odr hidden ptr @_ZNKSt8_Rb_treeIN4cvc58internal6theory6Theory6EffortESt4pairIKS4_S5_IjjEESt10_Select1stIS8_ESt4lessIS4_ESaIS8_EE4findERS6_(ptr noundef nonnull align 8 dereferenceable(48) %0, ptr noundef nonnull align 4 dereferenceable(4) %1) #4 comdat align 2 {
  %3 = alloca %"struct.std::_Rb_tree_const_iterator", align 8
  %4 = alloca ptr, align 8
  %5 = alloca ptr, align 8
  %6 = alloca %"struct.std::_Rb_tree_const_iterator", align 8
  %7 = alloca %"struct.std::_Rb_tree_const_iterator", align 8
  store ptr %0, ptr %4, align 8, !tbaa !304
  store ptr %1, ptr %5, align 8, !tbaa !53
  %8 = load ptr, ptr %4, align 8
  call void @llvm.lifetime.start.p0(i64 8, ptr %6) #3
  %9 = call noundef ptr @_ZNKSt8_Rb_treeIN4cvc58internal6theory6Theory6EffortESt4pairIKS4_S5_IjjEESt10_Select1stIS8_ESt4lessIS4_ESaIS8_EE8_M_beginEv(ptr noundef nonnull align 8 dereferenceable(48) %8) #3
  %10 = call noundef ptr @_ZNKSt8_Rb_treeIN4cvc58internal6theory6Theory6EffortESt4pairIKS4_S5_IjjEESt10_Select1stIS8_ESt4lessIS4_ESaIS8_EE6_M_endEv(ptr noundef nonnull align 8 dereferenceable(48) %8) #3
  %11 = load ptr, ptr %5, align 8, !tbaa !53
  %12 = call ptr @_ZNKSt8_Rb_treeIN4cvc58internal6theory6Theory6EffortESt4pairIKS4_S5_IjjEESt10_Select1stIS8_ESt4lessIS4_ESaIS8_EE14_M_lower_boundEPKSt13_Rb_tree_nodeIS8_EPKSt18_Rb_tree_node_baseRS6_(ptr noundef nonnull align 8 dereferenceable(48) %8, ptr noundef %9, ptr noundef %10, ptr noundef nonnull align 4 dereferenceable(4) %11)
  %13 = getelementptr inbounds nuw %"struct.std::_Rb_tree_const_iterator", ptr %6, i32 0, i32 0
  store ptr %12, ptr %13, align 8
  call void @llvm.lifetime.start.p0(i64 8, ptr %7) #3
  %14 = call ptr @_ZNKSt8_Rb_treeIN4cvc58internal6theory6Theory6EffortESt4pairIKS4_S5_IjjEESt10_Select1stIS8_ESt4lessIS4_ESaIS8_EE3endEv(ptr noundef nonnull align 8 dereferenceable(48) %8) #3
  %15 = getelementptr inbounds nuw %"struct.std::_Rb_tree_const_iterator", ptr %7, i32 0, i32 0
  store ptr %14, ptr %15, align 8
  %16 = call noundef zeroext i1 @_ZSteqRKSt23_Rb_tree_const_iteratorISt4pairIKN4cvc58internal6theory6Theory6EffortES0_IjjEEESB_(ptr noundef nonnull align 8 dereferenceable(8) %6, ptr noundef nonnull align 8 dereferenceable(8) %7) #3
  br i1 %16, label %24, label %17

17:                                               ; preds = %2
  %18 = getelementptr inbounds nuw %"class.std::_Rb_tree", ptr %8, i32 0, i32 0
  %19 = load ptr, ptr %5, align 8, !tbaa !53
  %20 = getelementptr inbounds nuw %"struct.std::_Rb_tree_const_iterator", ptr %6, i32 0, i32 0
  %21 = load ptr, ptr %20, align 8, !tbaa !51
  %22 = call noundef nonnull align 4 dereferenceable(4) ptr @_ZNSt8_Rb_treeIN4cvc58internal6theory6Theory6EffortESt4pairIKS4_S5_IjjEESt10_Select1stIS8_ESt4lessIS4_ESaIS8_EE6_S_keyEPKSt18_Rb_tree_node_base(ptr noundef %21)
  %23 = call noundef zeroext i1 @_ZNKSt4lessIN4cvc58internal6theory6Theory6EffortEEclERKS4_S7_(ptr noundef nonnull align 1 dereferenceable(1) %18, ptr noundef nonnull align 4 dereferenceable(4) %19, ptr noundef nonnull align 4 dereferenceable(4) %22)
  br i1 %23, label %24, label %27

24:                                               ; preds = %17, %2
  %25 = call ptr @_ZNKSt8_Rb_treeIN4cvc58internal6theory6Theory6EffortESt4pairIKS4_S5_IjjEESt10_Select1stIS8_ESt4lessIS4_ESaIS8_EE3endEv(ptr noundef nonnull align 8 dereferenceable(48) %8) #3
  %26 = getelementptr inbounds nuw %"struct.std::_Rb_tree_const_iterator", ptr %3, i32 0, i32 0
  store ptr %25, ptr %26, align 8
  br label %28

27:                                               ; preds = %17
  call void @llvm.memcpy.p0.p0.i64(ptr align 8 %3, ptr align 8 %6, i64 8, i1 false), !tbaa.struct !276
  br label %28

28:                                               ; preds = %27, %24
  call void @llvm.lifetime.end.p0(i64 8, ptr %7) #3
  call void @llvm.lifetime.end.p0(i64 8, ptr %6) #3
  %29 = getelementptr inbounds nuw %"struct.std::_Rb_tree_const_iterator", ptr %3, i32 0, i32 0
  %30 = load ptr, ptr %29, align 8
  ret ptr %30
}

; Function Attrs: mustprogress nounwind uwtable
define linkonce_odr noundef zeroext i1 @_ZStneRKSt23_Rb_tree_const_iteratorISt4pairIKN4cvc58internal6theory6Theory6EffortES0_IjjEEESB_(ptr noundef nonnull align 8 dereferenceable(8) %0, ptr noundef nonnull align 8 dereferenceable(8) %1) #8 comdat {
  %3 = alloca ptr, align 8
  %4 = alloca ptr, align 8
  store ptr %0, ptr %3, align 8, !tbaa !49
  store ptr %1, ptr %4, align 8, !tbaa !49
  %5 = load ptr, ptr %3, align 8, !tbaa !49
  %6 = getelementptr inbounds nuw %"struct.std::_Rb_tree_const_iterator", ptr %5, i32 0, i32 0
  %7 = load ptr, ptr %6, align 8, !tbaa !51
  %8 = load ptr, ptr %4, align 8, !tbaa !49
  %9 = getelementptr inbounds nuw %"struct.std::_Rb_tree_const_iterator", ptr %8, i32 0, i32 0
  %10 = load ptr, ptr %9, align 8, !tbaa !51
  %11 = icmp ne ptr %7, %10
  ret i1 %11
}

; Function Attrs: mustprogress nounwind uwtable
define linkonce_odr hidden ptr @_ZNKSt3mapIN4cvc58internal6theory6Theory6EffortESt4pairIjjESt4lessIS4_ESaIS5_IKS4_S6_EEE3endEv(ptr noundef nonnull align 8 dereferenceable(48) %0) #8 comdat align 2 {
  %2 = alloca %"struct.std::_Rb_tree_const_iterator", align 8
  %3 = alloca ptr, align 8
  store ptr %0, ptr %3, align 8, !tbaa !39
  %4 = load ptr, ptr %3, align 8
  %5 = getelementptr inbounds nuw %"class.std::map", ptr %4, i32 0, i32 0
  %6 = call ptr @_ZNKSt8_Rb_treeIN4cvc58internal6theory6Theory6EffortESt4pairIKS4_S5_IjjEESt10_Select1stIS8_ESt4lessIS4_ESaIS8_EE3endEv(ptr noundef nonnull align 8 dereferenceable(48) %5) #3
  %7 = getelementptr inbounds nuw %"struct.std::_Rb_tree_const_iterator", ptr %2, i32 0, i32 0
  store ptr %6, ptr %7, align 8
  %8 = getelementptr inbounds nuw %"struct.std::_Rb_tree_const_iterator", ptr %2, i32 0, i32 0
  %9 = load ptr, ptr %8, align 8
  ret ptr %9
}

; Function Attrs: mustprogress uwtable
define linkonce_odr hidden ptr @_ZNKSt3mapIN4cvc58internal6theory6Theory6EffortESt4pairIjjESt4lessIS4_ESaIS5_IKS4_S6_EEE4findERS9_(ptr noundef nonnull align 8 dereferenceable(48) %0, ptr noundef nonnull align 4 dereferenceable(4) %1) #4 comdat align 2 {
  %3 = alloca %"struct.std::_Rb_tree_const_iterator", align 8
  %4 = alloca ptr, align 8
  %5 = alloca ptr, align 8
  store ptr %0, ptr %4, align 8, !tbaa !39
  store ptr %1, ptr %5, align 8, !tbaa !53
  %6 = load ptr, ptr %4, align 8
  %7 = getelementptr inbounds nuw %"class.std::map", ptr %6, i32 0, i32 0
  %8 = load ptr, ptr %5, align 8, !tbaa !53
  %9 = call ptr @_ZNKSt8_Rb_treeIN4cvc58internal6theory6Theory6EffortESt4pairIKS4_S5_IjjEESt10_Select1stIS8_ESt4lessIS4_ESaIS8_EE4findERS6_(ptr noundef nonnull align 8 dereferenceable(48) %7, ptr noundef nonnull align 4 dereferenceable(4) %8)
  %10 = getelementptr inbounds nuw %"struct.std::_Rb_tree_const_iterator", ptr %3, i32 0, i32 0
  store ptr %9, ptr %10, align 8
  %11 = getelementptr inbounds nuw %"struct.std::_Rb_tree_const_iterator", ptr %3, i32 0, i32 0
  %12 = load ptr, ptr %11, align 8
  ret ptr %12
}

; Function Attrs: mustprogress uwtable
define hidden noundef zeroext i1 @_ZNK4cvc58internal6theory7strings8Strategy17hasStrategyEffortENS1_6Theory6EffortE(ptr noundef nonnull align 8 dereferenceable(96) %0, i32 noundef %1) #4 align 2 {
  %3 = alloca ptr, align 8
  %4 = alloca i32, align 4
  %5 = alloca %"struct.std::_Rb_tree_const_iterator", align 8
  %6 = alloca %"struct.std::_Rb_tree_const_iterator", align 8
  store ptr %0, ptr %3, align 8, !tbaa !14
  store i32 %1, ptr %4, align 4, !tbaa !47
  %7 = load ptr, ptr %3, align 8
  call void @llvm.lifetime.start.p0(i64 8, ptr %5) #3
  %8 = getelementptr inbounds nuw %"class.cvc5::internal::theory::strings::Strategy", ptr %7, i32 0, i32 3
  %9 = call ptr @_ZNKSt3mapIN4cvc58internal6theory6Theory6EffortESt4pairIjjESt4lessIS4_ESaIS5_IKS4_S6_EEE4findERS9_(ptr noundef nonnull align 8 dereferenceable(48) %8, ptr noundef nonnull align 4 dereferenceable(4) %4)
  %10 = getelementptr inbounds nuw %"struct.std::_Rb_tree_const_iterator", ptr %5, i32 0, i32 0
  store ptr %9, ptr %10, align 8
  call void @llvm.lifetime.start.p0(i64 8, ptr %6) #3
  %11 = getelementptr inbounds nuw %"class.cvc5::internal::theory::strings::Strategy", ptr %7, i32 0, i32 3
  %12 = call ptr @_ZNKSt3mapIN4cvc58internal6theory6Theory6EffortESt4pairIjjESt4lessIS4_ESaIS5_IKS4_S6_EEE3endEv(ptr noundef nonnull align 8 dereferenceable(48) %11) #3
  %13 = getelementptr inbounds nuw %"struct.std::_Rb_tree_const_iterator", ptr %6, i32 0, i32 0
  store ptr %12, ptr %13, align 8
  %14 = call noundef zeroext i1 @_ZStneRKSt23_Rb_tree_const_iteratorISt4pairIKN4cvc58internal6theory6Theory6EffortES0_IjjEEESB_(ptr noundef nonnull align 8 dereferenceable(8) %5, ptr noundef nonnull align 8 dereferenceable(8) %6) #3
  call void @llvm.lifetime.end.p0(i64 8, ptr %6) #3
  call void @llvm.lifetime.end.p0(i64 8, ptr %5) #3
  ret i1 %14
}