; Function Attrs: mustprogress nofree norecurse nosync nounwind willreturn memory(read, inaccessiblemem: none) uwtable
define hidden noundef zeroext i1 @_ZNK4cvc58internal6theory7strings8Strategy17hasStrategyEffortENS1_6Theory6EffortE(ptr noundef nonnull readonly align 8 captures(address) dereferenceable(96) %0, i32 noundef %1) local_unnamed_addr #10 align 2 {
  %3 = getelementptr inbounds nuw i8, ptr %0, i64 64
  %4 = load ptr, ptr %3, align 8, !tbaa !29
  %5 = getelementptr inbounds nuw i8, ptr %0, i64 56
  %.not10.i.i.i = icmp eq ptr %4, null
  br i1 %.not10.i.i.i, label %_ZNKSt3mapIN4cvc58internal6theory6Theory6EffortESt4pairIjjESt4lessIS4_ESaIS5_IKS4_S6_EEE4findERS9_.exit, label %.lr.ph.i.i.i

.lr.ph.i.i.i:                                     ; preds = %2, %.lr.ph.i.i.i
  %.012.i.i.i = phi ptr [ %.1.i.i.i, %.lr.ph.i.i.i ], [ %4, %2 ]
  %.0811.i.i.i = phi ptr [ %.19.i.i.i, %.lr.ph.i.i.i ], [ %5, %2 ]
  %6 = getelementptr inbounds nuw i8, ptr %.012.i.i.i, i64 32
  %7 = load i32, ptr %6, align 4, !tbaa !37
  %8 = icmp slt i32 %7, %1
  %.19.i.i.i = select i1 %8, ptr %.0811.i.i.i, ptr %.012.i.i.i
  %.1.in.v.i.i.i = select i1 %8, i64 24, i64 16
  %.1.in.i.i.i = getelementptr inbounds nuw i8, ptr %.012.i.i.i, i64 %.1.in.v.i.i.i
  %.1.i.i.i = load ptr, ptr %.1.in.i.i.i, align 8, !tbaa !39
  %.not.i.i.i = icmp eq ptr %.1.i.i.i, null
  br i1 %.not.i.i.i, label %_ZNKSt8_Rb_treeIN4cvc58internal6theory6Theory6EffortESt4pairIKS4_S5_IjjEESt10_Select1stIS8_ESt4lessIS4_ESaIS8_EE14_M_lower_boundEPKSt13_Rb_tree_nodeIS8_EPKSt18_Rb_tree_node_baseRS6_.exit.i.i, label %.lr.ph.i.i.i, !llvm.loop !40

_ZNKSt8_Rb_treeIN4cvc58internal6theory6Theory6EffortESt4pairIKS4_S5_IjjEESt10_Select1stIS8_ESt4lessIS4_ESaIS8_EE14_M_lower_boundEPKSt13_Rb_tree_nodeIS8_EPKSt18_Rb_tree_node_baseRS6_.exit.i.i: ; preds = %.lr.ph.i.i.i
  %9 = icmp eq ptr %.19.i.i.i, %5
  br i1 %9, label %_ZNKSt3mapIN4cvc58internal6theory6Theory6EffortESt4pairIjjESt4lessIS4_ESaIS5_IKS4_S6_EEE4findERS9_.exit, label %10

10:                                               ; preds = %_ZNKSt8_Rb_treeIN4cvc58internal6theory6Theory6EffortESt4pairIKS4_S5_IjjEESt10_Select1stIS8_ESt4lessIS4_ESaIS8_EE14_M_lower_boundEPKSt13_Rb_tree_nodeIS8_EPKSt18_Rb_tree_node_baseRS6_.exit.i.i
  %11 = getelementptr inbounds nuw i8, ptr %.19.i.i.i, i64 32
  %12 = load i32, ptr %11, align 4, !tbaa !37
  %13 = icmp slt i32 %1, %12
  %spec.select.i.i = select i1 %13, ptr %5, ptr %.19.i.i.i
  br label %_ZNKSt3mapIN4cvc58internal6theory6Theory6EffortESt4pairIjjESt4lessIS4_ESaIS5_IKS4_S6_EEE4findERS9_.exit

_ZNKSt3mapIN4cvc58internal6theory6Theory6EffortESt4pairIjjESt4lessIS4_ESaIS5_IKS4_S6_EEE4findERS9_.exit: ; preds = %2, %_ZNKSt8_Rb_treeIN4cvc58internal6theory6Theory6EffortESt4pairIKS4_S5_IjjEESt10_Select1stIS8_ESt4lessIS4_ESaIS8_EE14_M_lower_boundEPKSt13_Rb_tree_nodeIS8_EPKSt18_Rb_tree_node_baseRS6_.exit.i.i, %10
  %.sroa.0.0.i.i = phi ptr [ %5, %_ZNKSt8_Rb_treeIN4cvc58internal6theory6Theory6EffortESt4pairIKS4_S5_IjjEESt10_Select1stIS8_ESt4lessIS4_ESaIS8_EE14_M_lower_boundEPKSt13_Rb_tree_nodeIS8_EPKSt18_Rb_tree_node_baseRS6_.exit.i.i ], [ %5, %2 ], [ %spec.select.i.i, %10 ]
  %14 = icmp ne ptr %.sroa.0.0.i.i, %5
  ret i1 %14
}